; Function Attrs: nofree norecurse nosync nounwind memory(readwrite, inaccessiblemem: none) uwtable
define void @erkStep_ApplyForcing(ptr noundef readonly captures(none) %0, ptr noundef readonly captures(none) %1, ptr noundef readonly captures(none) %2, i32 noundef %3, ptr noundef captures(none) %4) local_unnamed_addr #8 {
  %6 = getelementptr inbounds nuw i8, ptr %0, i64 48
  %7 = load ptr, ptr %6, align 8, !tbaa !75
  %8 = getelementptr inbounds nuw i8, ptr %0, i64 56
  %9 = load ptr, ptr %8, align 8, !tbaa !76
  %10 = getelementptr inbounds nuw i8, ptr %0, i64 72
  %11 = load double, ptr %10, align 8, !tbaa !86
  %12 = getelementptr inbounds nuw i8, ptr %0, i64 80
  %13 = load double, ptr %12, align 8, !tbaa !87
  %14 = getelementptr inbounds nuw i8, ptr %0, i64 96
  %15 = load i32, ptr %14, align 8, !tbaa !53
  %16 = getelementptr inbounds nuw i8, ptr %0, i64 88
  %17 = load ptr, ptr %16, align 8, !tbaa !52
  %18 = load i32, ptr %4, align 4, !tbaa !89
  %19 = icmp sgt i32 %15, 0
  br i1 %19, label %.lr.ph.preheader, label %._crit_edge46

.lr.ph.preheader:                                 ; preds = %5
  %20 = sext i32 %18 to i64
  %wide.trip.count = zext nneg i32 %15 to i64
  br label %.lr.ph

.preheader:                                       ; preds = %.lr.ph
  %21 = icmp slt i32 %3, 1
  br i1 %21, label %._crit_edge46, label %.lr.ph43.us.preheader

.lr.ph43.us.preheader:                            ; preds = %.preheader
  %22 = sext i32 %18 to i64
  %wide.trip.count57 = zext nneg i32 %3 to i64
  %wide.trip.count52 = zext nneg i32 %15 to i64
  %invariant.gep = getelementptr double, ptr %7, i64 %22
  br label %.lr.ph43.us

.lr.ph43.us:                                      ; preds = %.lr.ph43.us.preheader, %._crit_edge.us
  %indvars.iv54 = phi i64 [ 0, %.lr.ph43.us.preheader ], [ %indvars.iv.next55, %._crit_edge.us ]
  %23 = getelementptr inbounds nuw double, ptr %1, i64 %indvars.iv54
  %24 = load double, ptr %23, align 8, !tbaa !81
  %25 = fsub double %24, %11
  %26 = fdiv double %25, %13
  %27 = getelementptr inbounds nuw double, ptr %2, i64 %indvars.iv54
  br label %28

28:                                               ; preds = %.lr.ph43.us, %28
  %indvars.iv49 = phi i64 [ 0, %.lr.ph43.us ], [ %indvars.iv.next50, %28 ]
  %.042.us = phi double [ 1.000000e+00, %.lr.ph43.us ], [ %32, %28 ]
  %29 = load double, ptr %27, align 8, !tbaa !81
  %gep = getelementptr double, ptr %invariant.gep, i64 %indvars.iv49
  %30 = load double, ptr %gep, align 8, !tbaa !81
  %31 = tail call double @llvm.fmuladd.f64(double %29, double %.042.us, double %30)
  store double %31, ptr %gep, align 8, !tbaa !81
  %32 = fmul double %26, %.042.us
  %indvars.iv.next50 = add nuw nsw i64 %indvars.iv49, 1
  %exitcond53.not = icmp eq i64 %indvars.iv.next50, %wide.trip.count52
  br i1 %exitcond53.not, label %._crit_edge.us, label %28

._crit_edge.us:                                   ; preds = %28
  %indvars.iv.next55 = add nuw nsw i64 %indvars.iv54, 1
  %exitcond58.not = icmp eq i64 %indvars.iv.next55, %wide.trip.count57
  br i1 %exitcond58.not, label %._crit_edge46, label %.lr.ph43.us

.lr.ph:                                           ; preds = %.lr.ph.preheader, %.lr.ph
  %indvars.iv = phi i64 [ 0, %.lr.ph.preheader ], [ %indvars.iv.next, %.lr.ph ]
  %33 = add nsw i64 %indvars.iv, %20
  %34 = getelementptr inbounds double, ptr %7, i64 %33
  store double 0.000000e+00, ptr %34, align 8, !tbaa !81
  %35 = getelementptr inbounds nuw ptr, ptr %17, i64 %indvars.iv
  %36 = load ptr, ptr %35, align 8, !tbaa !83
  %37 = getelementptr inbounds ptr, ptr %9, i64 %33
  store ptr %36, ptr %37, align 8, !tbaa !83
  %indvars.iv.next = add nuw nsw i64 %indvars.iv, 1
  %exitcond.not = icmp eq i64 %indvars.iv.next, %wide.trip.count
  br i1 %exitcond.not, label %.preheader, label %.lr.ph

._crit_edge46:                                    ; preds = %._crit_edge.us, %.preheader, %5
  %38 = add nsw i32 %18, %15
  store i32 %38, ptr %4, align 4, !tbaa !89
  ret void
}